target datalayout = "e-m:e-p270:32:32-p271:32:32-p272:64:64-i64:64-i128:128-f80:128-n8:16:32:64-S128"
target triple = "x86_64-pc-linux-gnu"

%struct.Nm_Man_t_ = type { ptr, ptr, i32, i32, i32, i32, ptr }
%struct.Nm_Entry_t_ = type { i32, i32, ptr, ptr, ptr, [0 x i8] }

@Nm_HashString.s_Primes = internal global [10 x i32] [i32 1291, i32 1699, i32 2357, i32 4177, i32 5147, i32 5647, i32 6343, i32 7103, i32 7873, i32 8147], align 16

; Function Attrs: nounwind uwtable
define internal i32 @Nm_HashString(ptr noundef %0, i32 noundef %1) #0 {
  %3 = alloca ptr, align 8
  %4 = alloca i32, align 4
  %5 = alloca i32, align 4
  %6 = alloca i32, align 4
  store ptr %0, ptr %3, align 8, !tbaa !34
  store i32 %1, ptr %4, align 4, !tbaa !28
  call void @llvm.lifetime.start.p0(i64 4, ptr %5) #8
  call void @llvm.lifetime.start.p0(i64 4, ptr %6) #8
  store i32 0, ptr %6, align 4, !tbaa !28
  store i32 0, ptr %5, align 4, !tbaa !28
  br label %7

7:                                                ; preds = %37, %2
  %8 = load ptr, ptr %3, align 8, !tbaa !34
  %9 = load i32, ptr %5, align 4, !tbaa !28
  %10 = zext i32 %9 to i64
  %11 = getelementptr inbounds nuw i8, ptr %8, i64 %10
  %12 = load i8, ptr %11, align 1, !tbaa !39
  %13 = sext i8 %12 to i32
  %14 = icmp ne i32 %13, 0
  br i1 %14, label %15, label %40

15:                                               ; preds = %7
  %16 = load i32, ptr %5, align 4, !tbaa !28
  %17 = urem i32 %16, 10
  %18 = zext i32 %17 to i64
  %19 = getelementptr inbounds nuw [10 x i32], ptr @Nm_HashString.s_Primes, i64 0, i64 %18
  %20 = load i32, ptr %19, align 4, !tbaa !28
  %21 = load ptr, ptr %3, align 8, !tbaa !34
  %22 = load i32, ptr %5, align 4, !tbaa !28
  %23 = zext i32 %22 to i64
  %24 = getelementptr inbounds nuw i8, ptr %21, i64 %23
  %25 = load i8, ptr %24, align 1, !tbaa !39
  %26 = sext i8 %25 to i32
  %27 = mul nsw i32 %20, %26
  %28 = load ptr, ptr %3, align 8, !tbaa !34
  %29 = load i32, ptr %5, align 4, !tbaa !28
  %30 = zext i32 %29 to i64
  %31 = getelementptr inbounds nuw i8, ptr %28, i64 %30
  %32 = load i8, ptr %31, align 1, !tbaa !39
  %33 = sext i8 %32 to i32
  %34 = mul nsw i32 %27, %33
  %35 = load i32, ptr %6, align 4, !tbaa !28
  %36 = xor i32 %35, %34
  store i32 %36, ptr %6, align 4, !tbaa !28
  br label %37

37:                                               ; preds = %15
  %38 = load i32, ptr %5, align 4, !tbaa !28
  %39 = add i32 %38, 1
  store i32 %39, ptr %5, align 4, !tbaa !28
  br label %7, !llvm.loop !40

40:                                               ; preds = %7
  %41 = load i32, ptr %6, align 4, !tbaa !28
  %42 = load i32, ptr %4, align 4, !tbaa !28
  %43 = urem i32 %41, %42
  call void @llvm.lifetime.end.p0(i64 4, ptr %6) #8
  call void @llvm.lifetime.end.p0(i64 4, ptr %5) #8
  ret i32 %43
}

; Function Attrs: nounwind uwtable
define internal i32 @Nm_HashNumber(i32 noundef %0, i32 noundef %1) #0 {
  %3 = alloca i32, align 4
  %4 = alloca i32, align 4
  %5 = alloca i32, align 4
  store i32 %0, ptr %3, align 4, !tbaa !28
  store i32 %1, ptr %4, align 4, !tbaa !28
  call void @llvm.lifetime.start.p0(i64 4, ptr %5) #8
  store i32 0, ptr %5, align 4, !tbaa !28
  %6 = load i32, ptr %3, align 4, !tbaa !28
  %7 = and i32 %6, 255
  %8 = mul nsw i32 %7, 7937
  %9 = load i32, ptr %5, align 4, !tbaa !28
  %10 = xor i32 %9, %8
  store i32 %10, ptr %5, align 4, !tbaa !28
  %11 = load i32, ptr %3, align 4, !tbaa !28
  %12 = ashr i32 %11, 8
  %13 = and i32 %12, 255
  %14 = mul nsw i32 %13, 2971
  %15 = load i32, ptr %5, align 4, !tbaa !28
  %16 = xor i32 %15, %14
  store i32 %16, ptr %5, align 4, !tbaa !28
  %17 = load i32, ptr %3, align 4, !tbaa !28
  %18 = ashr i32 %17, 16
  %19 = and i32 %18, 255
  %20 = mul nsw i32 %19, 911
  %21 = load i32, ptr %5, align 4, !tbaa !28
  %22 = xor i32 %21, %20
  store i32 %22, ptr %5, align 4, !tbaa !28
  %23 = load i32, ptr %3, align 4, !tbaa !28
  %24 = ashr i32 %23, 24
  %25 = and i32 %24, 255
  %26 = mul nsw i32 %25, 353
  %27 = load i32, ptr %5, align 4, !tbaa !28
  %28 = xor i32 %27, %26
  store i32 %28, ptr %5, align 4, !tbaa !28
  %29 = load i32, ptr %5, align 4, !tbaa !28
  %30 = load i32, ptr %4, align 4, !tbaa !28
  %31 = urem i32 %29, %30
  call void @llvm.lifetime.end.p0(i64 4, ptr %5) #8
  ret i32 %31
}

; Function Attrs: nounwind uwtable
define i32 @Nm_ManTableDelete(ptr noundef %0, i32 noundef %1) #0 {
  %3 = alloca i32, align 4
  %4 = alloca ptr, align 8
  %5 = alloca i32, align 4
  %6 = alloca ptr, align 8
  %7 = alloca ptr, align 8
  %8 = alloca ptr, align 8
  %9 = alloca i32, align 4
  %10 = alloca i32, align 4
  store ptr %0, ptr %4, align 8, !tbaa !3
  store i32 %1, ptr %5, align 4, !tbaa !28
  call void @llvm.lifetime.start.p0(i64 8, ptr %6) #8
  call void @llvm.lifetime.start.p0(i64 8, ptr %7) #8
  call void @llvm.lifetime.start.p0(i64 8, ptr %8) #8
  call void @llvm.lifetime.start.p0(i64 4, ptr %9) #8
  %11 = load ptr, ptr %4, align 8, !tbaa !3
  %12 = getelementptr inbounds nuw %struct.Nm_Man_t_, ptr %11, i32 0, i32 3
  %13 = load i32, ptr %12, align 4, !tbaa !10
  %14 = add nsw i32 %13, -1
  store i32 %14, ptr %12, align 4, !tbaa !10
  %15 = load ptr, ptr %4, align 8, !tbaa !3
  %16 = getelementptr inbounds nuw %struct.Nm_Man_t_, ptr %15, i32 0, i32 0
  %17 = load ptr, ptr %16, align 8, !tbaa !17
  %18 = load i32, ptr %5, align 4, !tbaa !28
  %19 = load ptr, ptr %4, align 8, !tbaa !3
  %20 = getelementptr inbounds nuw %struct.Nm_Man_t_, ptr %19, i32 0, i32 2
  %21 = load i32, ptr %20, align 8, !tbaa !15
  %22 = call i32 @Nm_HashNumber(i32 noundef %18, i32 noundef %21)
  %23 = zext i32 %22 to i64
  %24 = getelementptr inbounds nuw ptr, ptr %17, i64 %23
  store ptr %24, ptr %6, align 8, !tbaa !20
  br label %25

25:                                               ; preds = %32, %2
  %26 = load ptr, ptr %6, align 8, !tbaa !20
  %27 = load ptr, ptr %26, align 8, !tbaa !8
  %28 = getelementptr inbounds nuw %struct.Nm_Entry_t_, ptr %27, i32 0, i32 1
  %29 = load i32, ptr %28, align 4, !tbaa !18
  %30 = load i32, ptr %5, align 4, !tbaa !28
  %31 = icmp ne i32 %29, %30
  br i1 %31, label %32, label %36

32:                                               ; preds = %25
  %33 = load ptr, ptr %6, align 8, !tbaa !20
  %34 = load ptr, ptr %33, align 8, !tbaa !8
  %35 = getelementptr inbounds nuw %struct.Nm_Entry_t_, ptr %34, i32 0, i32 2
  store ptr %35, ptr %6, align 8, !tbaa !20
  br label %25, !llvm.loop !41

36:                                               ; preds = %25
  %37 = load ptr, ptr %6, align 8, !tbaa !20
  %38 = load ptr, ptr %37, align 8, !tbaa !8
  store ptr %38, ptr %7, align 8, !tbaa !8
  %39 = load ptr, ptr %6, align 8, !tbaa !20
  %40 = load ptr, ptr %39, align 8, !tbaa !8
  %41 = getelementptr inbounds nuw %struct.Nm_Entry_t_, ptr %40, i32 0, i32 2
  %42 = load ptr, ptr %41, align 8, !tbaa !21
  %43 = load ptr, ptr %6, align 8, !tbaa !20
  store ptr %42, ptr %43, align 8, !tbaa !8
  %44 = load ptr, ptr %4, align 8, !tbaa !3
  %45 = getelementptr inbounds nuw %struct.Nm_Man_t_, ptr %44, i32 0, i32 1
  %46 = load ptr, ptr %45, align 8, !tbaa !23
  %47 = load ptr, ptr %7, align 8, !tbaa !8
  %48 = getelementptr inbounds nuw %struct.Nm_Entry_t_, ptr %47, i32 0, i32 5
  %49 = getelementptr inbounds [0 x i8], ptr %48, i64 0, i64 0
  %50 = load ptr, ptr %4, align 8, !tbaa !3
  %51 = getelementptr inbounds nuw %struct.Nm_Man_t_, ptr %50, i32 0, i32 2
  %52 = load i32, ptr %51, align 8, !tbaa !15
  %53 = call i32 @Nm_HashString(ptr noundef %49, i32 noundef %52)
  %54 = zext i32 %53 to i64
  %55 = getelementptr inbounds nuw ptr, ptr %46, i64 %54
  store ptr %55, ptr %6, align 8, !tbaa !20
  br label %56

56:                                               ; preds = %67, %36
  %57 = load ptr, ptr %6, align 8, !tbaa !20
  %58 = load ptr, ptr %57, align 8, !tbaa !8
  %59 = icmp ne ptr %58, null
  br i1 %59, label %60, label %65

60:                                               ; preds = %56
  %61 = load ptr, ptr %6, align 8, !tbaa !20
  %62 = load ptr, ptr %61, align 8, !tbaa !8
  %63 = load ptr, ptr %7, align 8, !tbaa !8
  %64 = icmp ne ptr %62, %63
  br label %65

65:                                               ; preds = %60, %56
  %66 = phi i1 [ false, %56 ], [ %64, %60 ]
  br i1 %66, label %67, label %71

67:                                               ; preds = %65
  %68 = load ptr, ptr %6, align 8, !tbaa !20
  %69 = load ptr, ptr %68, align 8, !tbaa !8
  %70 = getelementptr inbounds nuw %struct.Nm_Entry_t_, ptr %69, i32 0, i32 3
  store ptr %70, ptr %6, align 8, !tbaa !20
  br label %56, !llvm.loop !42

71:                                               ; preds = %65
  %72 = load ptr, ptr %6, align 8, !tbaa !20
  %73 = load ptr, ptr %72, align 8, !tbaa !8
  %74 = icmp ne ptr %73, null
  %75 = zext i1 %74 to i32
  store i32 %75, ptr %9, align 4, !tbaa !28
  %76 = load ptr, ptr %6, align 8, !tbaa !20
  %77 = load ptr, ptr %76, align 8, !tbaa !8
  %78 = icmp ne ptr %77, null
  br i1 %78, label %79, label %85

79:                                               ; preds = %71
  %80 = load ptr, ptr %6, align 8, !tbaa !20
  %81 = load ptr, ptr %80, align 8, !tbaa !8
  %82 = getelementptr inbounds nuw %struct.Nm_Entry_t_, ptr %81, i32 0, i32 3
  %83 = load ptr, ptr %82, align 8, !tbaa !24
  %84 = load ptr, ptr %6, align 8, !tbaa !20
  store ptr %83, ptr %84, align 8, !tbaa !8
  br label %85

85:                                               ; preds = %79, %71
  %86 = load ptr, ptr %7, align 8, !tbaa !8
  %87 = getelementptr inbounds nuw %struct.Nm_Entry_t_, ptr %86, i32 0, i32 4
  %88 = load ptr, ptr %87, align 8, !tbaa !22
  %89 = icmp eq ptr %88, null
  br i1 %89, label %90, label %91

90:                                               ; preds = %85
  store i32 1, ptr %3, align 4
  store i32 1, ptr %10, align 4
  br label %130

91:                                               ; preds = %85
  %92 = load ptr, ptr %7, align 8, !tbaa !8
  store ptr %92, ptr %8, align 8, !tbaa !8
  br label %93

93:                                               ; preds = %100, %91
  %94 = load ptr, ptr %8, align 8, !tbaa !8
  %95 = getelementptr inbounds nuw %struct.Nm_Entry_t_, ptr %94, i32 0, i32 4
  %96 = load ptr, ptr %95, align 8, !tbaa !22
  %97 = load ptr, ptr %7, align 8, !tbaa !8
  %98 = icmp ne ptr %96, %97
  br i1 %98, label %99, label %104

99:                                               ; preds = %93
  br label %100

100:                                              ; preds = %99
  %101 = load ptr, ptr %8, align 8, !tbaa !8
  %102 = getelementptr inbounds nuw %struct.Nm_Entry_t_, ptr %101, i32 0, i32 4
  %103 = load ptr, ptr %102, align 8, !tbaa !22
  store ptr %103, ptr %8, align 8, !tbaa !8
  br label %93, !llvm.loop !43

104:                                              ; preds = %93
  %105 = load ptr, ptr %7, align 8, !tbaa !8
  %106 = getelementptr inbounds nuw %struct.Nm_Entry_t_, ptr %105, i32 0, i32 4
  %107 = load ptr, ptr %106, align 8, !tbaa !22
  %108 = load ptr, ptr %8, align 8, !tbaa !8
  %109 = icmp eq ptr %107, %108
  br i1 %109, label %110, label %113

110:                                              ; preds = %104
  %111 = load ptr, ptr %8, align 8, !tbaa !8
  %112 = getelementptr inbounds nuw %struct.Nm_Entry_t_, ptr %111, i32 0, i32 4
  store ptr null, ptr %112, align 8, !tbaa !22
  br label %119

113:                                              ; preds = %104
  %114 = load ptr, ptr %7, align 8, !tbaa !8
  %115 = getelementptr inbounds nuw %struct.Nm_Entry_t_, ptr %114, i32 0, i32 4
  %116 = load ptr, ptr %115, align 8, !tbaa !22
  %117 = load ptr, ptr %8, align 8, !tbaa !8
  %118 = getelementptr inbounds nuw %struct.Nm_Entry_t_, ptr %117, i32 0, i32 4
  store ptr %116, ptr %118, align 8, !tbaa !22
  br label %119

119:                                              ; preds = %113, %110
  %120 = load i32, ptr %9, align 4, !tbaa !28
  %121 = icmp ne i32 %120, 0
  br i1 %121, label %122, label %129

122:                                              ; preds = %119
  %123 = load ptr, ptr %6, align 8, !tbaa !20
  %124 = load ptr, ptr %123, align 8, !tbaa !8
  %125 = load ptr, ptr %8, align 8, !tbaa !8
  %126 = getelementptr inbounds nuw %struct.Nm_Entry_t_, ptr %125, i32 0, i32 3
  store ptr %124, ptr %126, align 8, !tbaa !24
  %127 = load ptr, ptr %8, align 8, !tbaa !8
  %128 = load ptr, ptr %6, align 8, !tbaa !20
  store ptr %127, ptr %128, align 8, !tbaa !8
  br label %129

129:                                              ; preds = %122, %119
  store i32 1, ptr %3, align 4
  store i32 1, ptr %10, align 4
  br label %130

130:                                              ; preds = %129, %90
  call void @llvm.lifetime.end.p0(i64 4, ptr %9) #8
  call void @llvm.lifetime.end.p0(i64 8, ptr %8) #8
  call void @llvm.lifetime.end.p0(i64 8, ptr %7) #8
  call void @llvm.lifetime.end.p0(i64 8, ptr %6) #8
  %131 = load i32, ptr %3, align 4
  ret i32 %131
}