; Function Attrs: nofree norecurse nosync nounwind memory(readwrite, inaccessiblemem: none) uwtable
define noundef i32 @Nm_ManTableDelete(ptr noundef captures(none) %0, i32 noundef %1) local_unnamed_addr #3 {
  %3 = getelementptr inbounds nuw i8, ptr %0, i64 20
  %4 = load i32, ptr %3, align 4, !tbaa !3
  %5 = add nsw i32 %4, -1
  store i32 %5, ptr %3, align 4, !tbaa !3
  %6 = load ptr, ptr %0, align 8, !tbaa !13
  %7 = getelementptr inbounds nuw i8, ptr %0, i64 16
  %8 = load i32, ptr %7, align 8, !tbaa !11
  %9 = and i32 %1, 255
  %10 = mul nuw nsw i32 %9, 7937
  %11 = lshr i32 %1, 8
  %12 = and i32 %11, 255
  %13 = mul nuw nsw i32 %12, 2971
  %14 = lshr i32 %1, 16
  %15 = and i32 %14, 255
  %16 = mul nuw nsw i32 %15, 911
  %17 = lshr i32 %1, 24
  %18 = mul nuw nsw i32 %17, 353
  %19 = xor i32 %18, %10
  %20 = xor i32 %19, %13
  %21 = xor i32 %20, %16
  %22 = urem i32 %21, %8
  %23 = zext nneg i32 %22 to i64
  %24 = getelementptr inbounds nuw ptr, ptr %6, i64 %23
  br label %25

25:                                               ; preds = %25, %2
  %.037 = phi ptr [ %24, %2 ], [ %29, %25 ]
  %26 = load ptr, ptr %.037, align 8, !tbaa !19
  %27 = getelementptr inbounds nuw i8, ptr %26, i64 4
  %28 = load i32, ptr %27, align 4, !tbaa !23
  %.not = icmp eq i32 %28, %1
  %29 = getelementptr inbounds nuw i8, ptr %26, i64 8
  br i1 %.not, label %30, label %25, !llvm.loop !36

30:                                               ; preds = %25
  %31 = load ptr, ptr %29, align 8, !tbaa !21
  store ptr %31, ptr %.037, align 8, !tbaa !19
  %32 = getelementptr inbounds nuw i8, ptr %0, i64 8
  %33 = load ptr, ptr %32, align 8, !tbaa !14
  %34 = getelementptr inbounds nuw i8, ptr %26, i64 32
  %35 = load i8, ptr %34, align 1, !tbaa !27
  %.not12.i = icmp eq i8 %35, 0
  br i1 %.not12.i, label %Nm_HashString.exit, label %.lr.ph.i

.lr.ph.i:                                         ; preds = %30, %.lr.ph.i
  %36 = phi i8 [ %48, %.lr.ph.i ], [ %35, %30 ]
  %.014.i = phi i32 [ %44, %.lr.ph.i ], [ 0, %30 ]
  %.01013.i = phi i32 [ %45, %.lr.ph.i ], [ 0, %30 ]
  %37 = sext i8 %36 to i32
  %38 = urem i32 %.01013.i, 10
  %39 = zext nneg i32 %38 to i64
  %40 = getelementptr inbounds nuw [10 x i32], ptr @Nm_HashString.s_Primes, i64 0, i64 %39
  %41 = load i32, ptr %40, align 4, !tbaa !28
  %42 = mul nsw i32 %37, %37
  %43 = mul i32 %42, %41
  %44 = xor i32 %43, %.014.i
  %45 = add i32 %.01013.i, 1
  %46 = zext i32 %45 to i64
  %47 = getelementptr inbounds nuw i8, ptr %34, i64 %46
  %48 = load i8, ptr %47, align 1, !tbaa !27
  %.not.i = icmp eq i8 %48, 0
  br i1 %.not.i, label %Nm_HashString.exit, label %.lr.ph.i, !llvm.loop !29

Nm_HashString.exit:                               ; preds = %.lr.ph.i, %30
  %.0.lcssa.i = phi i32 [ 0, %30 ], [ %44, %.lr.ph.i ]
  %49 = urem i32 %.0.lcssa.i, %8
  %50 = zext i32 %49 to i64
  %51 = getelementptr inbounds nuw ptr, ptr %33, i64 %50
  br label %52

52:                                               ; preds = %52, %Nm_HashString.exit
  %.1 = phi ptr [ %51, %Nm_HashString.exit ], [ %54, %52 ]
  %53 = load ptr, ptr %.1, align 8, !tbaa !19
  %.not41 = icmp eq ptr %53, null
  %.not42 = icmp eq ptr %53, %26
  %or.cond = or i1 %.not41, %.not42
  %54 = getelementptr inbounds nuw i8, ptr %53, i64 16
  br i1 %or.cond, label %.critedge, label %52, !llvm.loop !37

.critedge:                                        ; preds = %52
  br i1 %.not41, label %57, label %55

55:                                               ; preds = %.critedge
  %56 = load ptr, ptr %54, align 8, !tbaa !26
  store ptr %56, ptr %.1, align 8, !tbaa !19
  br label %57

57:                                               ; preds = %55, %.critedge
  %58 = getelementptr inbounds nuw i8, ptr %26, i64 24
  %59 = load ptr, ptr %58, align 8, !tbaa !32
  %60 = icmp eq ptr %59, null
  br i1 %60, label %69, label %.preheader

.preheader:                                       ; preds = %57, %.preheader
  %.036 = phi ptr [ %62, %.preheader ], [ %26, %57 ]
  %61 = getelementptr inbounds nuw i8, ptr %.036, i64 24
  %62 = load ptr, ptr %61, align 8, !tbaa !32
  %.not44 = icmp eq ptr %62, %26
  br i1 %.not44, label %63, label %.preheader, !llvm.loop !38

63:                                               ; preds = %.preheader
  %64 = getelementptr inbounds nuw i8, ptr %.036, i64 24
  %65 = icmp eq ptr %59, %.036
  %. = select i1 %65, ptr null, ptr %59
  store ptr %., ptr %64, align 8, !tbaa !32
  br i1 %.not41, label %69, label %66

66:                                               ; preds = %63
  %67 = load ptr, ptr %.1, align 8, !tbaa !19
  %68 = getelementptr inbounds nuw i8, ptr %.036, i64 16
  store ptr %67, ptr %68, align 8, !tbaa !26
  store ptr %.036, ptr %.1, align 8, !tbaa !19
  br label %69

69:                                               ; preds = %63, %66, %57
  ret i32 1
}